target datalayout = "e-m:e-p270:32:32-p271:32:32-p272:64:64-i64:64-i128:128-f80:128-n8:16:32:64-S128"
target triple = "x86_64-pc-linux-gnu"

%"class.rocksdb::autovector" = type { i64, [64 x i8], ptr, %"class.std::vector.19" }
%"class.std::vector.19" = type { %"struct.std::_Vector_base.20" }
%"struct.std::_Vector_base.20" = type { %"struct.std::_Vector_base<rocksdb::ReadOnlyMemTable *, std::allocator<rocksdb::ReadOnlyMemTable *>>::_Vector_impl" }
%"struct.std::_Vector_base<rocksdb::ReadOnlyMemTable *, std::allocator<rocksdb::ReadOnlyMemTable *>>::_Vector_impl" = type { %"struct.std::_Vector_base<rocksdb::ReadOnlyMemTable *, std::allocator<rocksdb::ReadOnlyMemTable *>>::_Vector_impl_data" }
%"struct.std::_Vector_base<rocksdb::ReadOnlyMemTable *, std::allocator<rocksdb::ReadOnlyMemTable *>>::_Vector_impl_data" = type { ptr, ptr, ptr }
%"class.rocksdb::autovector<rocksdb::ReadOnlyMemTable *>::iterator_impl" = type { ptr, i64 }

; Function Attrs: mustprogress nounwind uwtable
define linkonce_odr noundef nonnull align 8 dereferenceable(8) ptr @_ZNKSt6vectorIPN7rocksdb16ReadOnlyMemTableESaIS2_EEixEm(ptr noundef nonnull align 8 dereferenceable(24) %0, i64 noundef %1) #3 comdat align 2 {
  %3 = alloca ptr, align 8
  %4 = alloca i64, align 8
  store ptr %0, ptr %3, align 8, !tbaa !2153
  store i64 %1, ptr %4, align 8, !tbaa !4
  %5 = load ptr, ptr %3, align 8
  %6 = getelementptr inbounds nuw %"struct.std::_Vector_base.20", ptr %5, i32 0, i32 0
  %7 = getelementptr inbounds nuw %"struct.std::_Vector_base<rocksdb::ReadOnlyMemTable *, std::allocator<rocksdb::ReadOnlyMemTable *>>::_Vector_impl_data", ptr %6, i32 0, i32 0
  %8 = load ptr, ptr %7, align 8, !tbaa !2163
  %9 = load i64, ptr %4, align 8, !tbaa !4
  %10 = getelementptr inbounds nuw ptr, ptr %8, i64 %9
  ret ptr %10
}

; Function Attrs: mustprogress nounwind uwtable
define linkonce_odr noundef i64 @_ZNKSt6vectorIPN7rocksdb16ReadOnlyMemTableESaIS2_EE4sizeEv(ptr noundef nonnull align 8 dereferenceable(24) %0) #3 comdat align 2 {
  %2 = alloca ptr, align 8
  store ptr %0, ptr %2, align 8, !tbaa !2153
  %3 = load ptr, ptr %2, align 8
  %4 = getelementptr inbounds nuw %"struct.std::_Vector_base.20", ptr %3, i32 0, i32 0
  %5 = getelementptr inbounds nuw %"struct.std::_Vector_base<rocksdb::ReadOnlyMemTable *, std::allocator<rocksdb::ReadOnlyMemTable *>>::_Vector_impl_data", ptr %4, i32 0, i32 1
  %6 = load ptr, ptr %5, align 8, !tbaa !2164
  %7 = getelementptr inbounds nuw %"struct.std::_Vector_base.20", ptr %3, i32 0, i32 0
  %8 = getelementptr inbounds nuw %"struct.std::_Vector_base<rocksdb::ReadOnlyMemTable *, std::allocator<rocksdb::ReadOnlyMemTable *>>::_Vector_impl_data", ptr %7, i32 0, i32 0
  %9 = load ptr, ptr %8, align 8, !tbaa !2163
  %10 = ptrtoint ptr %6 to i64
  %11 = ptrtoint ptr %9 to i64
  %12 = sub i64 %10, %11
  %13 = sdiv exact i64 %12, 8
  ret i64 %13
}

; Function Attrs: mustprogress nounwind uwtable
define linkonce_odr noundef nonnull align 8 dereferenceable(8) ptr @_ZNK7rocksdb10autovectorIPNS_16ReadOnlyMemTableELm8EEixEm(ptr noundef nonnull align 8 dereferenceable(104) %0, i64 noundef %1) #3 comdat align 2 {
  %3 = alloca ptr, align 8
  %4 = alloca ptr, align 8
  %5 = alloca i64, align 8
  store ptr %0, ptr %4, align 8, !tbaa !294
  store i64 %1, ptr %5, align 8, !tbaa !4
  %6 = load ptr, ptr %4, align 8
  %7 = load i64, ptr %5, align 8, !tbaa !4
  %8 = icmp ult i64 %7, 8
  br i1 %8, label %9, label %14

9:                                                ; preds = %2
  %10 = getelementptr inbounds nuw %"class.rocksdb::autovector", ptr %6, i32 0, i32 2
  %11 = load ptr, ptr %10, align 8, !tbaa !297
  %12 = load i64, ptr %5, align 8, !tbaa !4
  %13 = getelementptr inbounds nuw ptr, ptr %11, i64 %12
  store ptr %13, ptr %3, align 8
  br label %19

14:                                               ; preds = %2
  %15 = getelementptr inbounds nuw %"class.rocksdb::autovector", ptr %6, i32 0, i32 3
  %16 = load i64, ptr %5, align 8, !tbaa !4
  %17 = sub i64 %16, 8
  %18 = call noundef nonnull align 8 dereferenceable(8) ptr @_ZNKSt6vectorIPN7rocksdb16ReadOnlyMemTableESaIS2_EEixEm(ptr noundef nonnull align 8 dereferenceable(24) %15, i64 noundef %17) #4
  store ptr %18, ptr %3, align 8
  br label %19

19:                                               ; preds = %14, %9
  %20 = load ptr, ptr %3, align 8
  ret ptr %20
}

; Function Attrs: mustprogress nounwind uwtable
define linkonce_odr noundef zeroext i1 @_ZNK7rocksdb10autovectorIPNS_16ReadOnlyMemTableELm8EE13iterator_implIKS3_KS2_EeqERKS7_(ptr noundef nonnull align 8 dereferenceable(16) %0, ptr noundef nonnull align 8 dereferenceable(16) %1) #3 comdat align 2 {
  %3 = alloca ptr, align 8
  %4 = alloca ptr, align 8
  store ptr %0, ptr %3, align 8, !tbaa !355
  store ptr %1, ptr %4, align 8, !tbaa !355
  %5 = load ptr, ptr %3, align 8
  %6 = getelementptr inbounds nuw %"class.rocksdb::autovector<rocksdb::ReadOnlyMemTable *>::iterator_impl", ptr %5, i32 0, i32 1
  %7 = load i64, ptr %6, align 8, !tbaa !359
  %8 = load ptr, ptr %4, align 8, !tbaa !355
  %9 = getelementptr inbounds nuw %"class.rocksdb::autovector<rocksdb::ReadOnlyMemTable *>::iterator_impl", ptr %8, i32 0, i32 1
  %10 = load i64, ptr %9, align 8, !tbaa !359
  %11 = icmp eq i64 %7, %10
  ret i1 %11
}

; Function Attrs: mustprogress nounwind uwtable
define linkonce_odr noundef i64 @_ZNK7rocksdb10autovectorIPNS_16ReadOnlyMemTableELm8EE4sizeEv(ptr noundef nonnull align 8 dereferenceable(104) %0) #3 comdat align 2 {
  %2 = alloca ptr, align 8
  store ptr %0, ptr %2, align 8, !tbaa !294
  %3 = load ptr, ptr %2, align 8
  %4 = getelementptr inbounds nuw %"class.rocksdb::autovector", ptr %3, i32 0, i32 0
  %5 = load i64, ptr %4, align 8, !tbaa !296
  %6 = getelementptr inbounds nuw %"class.rocksdb::autovector", ptr %3, i32 0, i32 3
  %7 = call noundef i64 @_ZNKSt6vectorIPN7rocksdb16ReadOnlyMemTableESaIS2_EE4sizeEv(ptr noundef nonnull align 8 dereferenceable(24) %6) #4
  %8 = add i64 %5, %7
  ret i64 %8
}

; Function Attrs: mustprogress nounwind uwtable
define linkonce_odr void @_ZN7rocksdb10autovectorIPNS_16ReadOnlyMemTableELm8EE13iterator_implIKS3_KS2_EC2EPS5_m(ptr noundef nonnull align 8 dereferenceable(16) %0, ptr noundef %1, i64 noundef %2) unnamed_addr #3 comdat align 2 {
  %4 = alloca ptr, align 8
  %5 = alloca ptr, align 8
  %6 = alloca i64, align 8
  store ptr %0, ptr %4, align 8, !tbaa !355
  store ptr %1, ptr %5, align 8, !tbaa !294
  store i64 %2, ptr %6, align 8, !tbaa !4
  %7 = load ptr, ptr %4, align 8
  %8 = getelementptr inbounds nuw %"class.rocksdb::autovector<rocksdb::ReadOnlyMemTable *>::iterator_impl", ptr %7, i32 0, i32 0
  %9 = load ptr, ptr %5, align 8, !tbaa !294
  store ptr %9, ptr %8, align 8, !tbaa !357
  %10 = getelementptr inbounds nuw %"class.rocksdb::autovector<rocksdb::ReadOnlyMemTable *>::iterator_impl", ptr %7, i32 0, i32 1
  %11 = load i64, ptr %6, align 8, !tbaa !4
  store i64 %11, ptr %10, align 8, !tbaa !359
  ret void
}

; Function Attrs: mustprogress nounwind uwtable
define linkonce_odr noundef nonnull align 8 dereferenceable(16) ptr @_ZN7rocksdb10autovectorIPNS_16ReadOnlyMemTableELm8EE13iterator_implIKS3_KS2_EppEv(ptr noundef nonnull align 8 dereferenceable(16) %0) #3 comdat align 2 {
  %2 = alloca ptr, align 8
  store ptr %0, ptr %2, align 8, !tbaa !355
  %3 = load ptr, ptr %2, align 8
  %4 = getelementptr inbounds nuw %"class.rocksdb::autovector<rocksdb::ReadOnlyMemTable *>::iterator_impl", ptr %3, i32 0, i32 1
  %5 = load i64, ptr %4, align 8, !tbaa !359
  %6 = add i64 %5, 1
  store i64 %6, ptr %4, align 8, !tbaa !359
  ret ptr %3
}

; Function Attrs: mustprogress uwtable
define linkonce_odr noundef nonnull align 8 dereferenceable(8) ptr @_ZNK7rocksdb10autovectorIPNS_16ReadOnlyMemTableELm8EE13iterator_implIKS3_KS2_EdeEv(ptr noundef nonnull align 8 dereferenceable(16) %0) #5 comdat align 2 {
  %2 = alloca ptr, align 8
  store ptr %0, ptr %2, align 8, !tbaa !355
  %3 = load ptr, ptr %2, align 8
  %4 = getelementptr inbounds nuw %"class.rocksdb::autovector<rocksdb::ReadOnlyMemTable *>::iterator_impl", ptr %3, i32 0, i32 0
  %5 = load ptr, ptr %4, align 8, !tbaa !357
  %6 = getelementptr inbounds nuw %"class.rocksdb::autovector<rocksdb::ReadOnlyMemTable *>::iterator_impl", ptr %3, i32 0, i32 1
  %7 = load i64, ptr %6, align 8, !tbaa !359
  %8 = call noundef nonnull align 8 dereferenceable(8) ptr @_ZNK7rocksdb10autovectorIPNS_16ReadOnlyMemTableELm8EEixEm(ptr noundef nonnull align 8 dereferenceable(104) %5, i64 noundef %7)
  ret ptr %8
}

; Function Attrs: mustprogress nounwind uwtable
define linkonce_odr void @_ZN7rocksdb10autovectorIPNS_16ReadOnlyMemTableELm8EE13iterator_implIKS3_KS2_ED2Ev(ptr noundef nonnull align 8 dereferenceable(16) %0) unnamed_addr #3 comdat align 2 {
  %2 = alloca ptr, align 8
  store ptr %0, ptr %2, align 8, !tbaa !355
  ret void
}

; Function Attrs: mustprogress uwtable
define linkonce_odr noundef zeroext i1 @_ZNK7rocksdb10autovectorIPNS_16ReadOnlyMemTableELm8EE13iterator_implIKS3_KS2_EneERKS7_(ptr noundef nonnull align 8 dereferenceable(16) %0, ptr noundef nonnull align 8 dereferenceable(16) %1) #5 comdat align 2 {
  %3 = alloca ptr, align 8
  %4 = alloca ptr, align 8
  store ptr %0, ptr %3, align 8, !tbaa !355
  store ptr %1, ptr %4, align 8, !tbaa !355
  %5 = load ptr, ptr %3, align 8
  %6 = load ptr, ptr %4, align 8, !tbaa !355
  %7 = call noundef zeroext i1 @_ZNK7rocksdb10autovectorIPNS_16ReadOnlyMemTableELm8EE13iterator_implIKS3_KS2_EeqERKS7_(ptr noundef nonnull align 8 dereferenceable(16) %5, ptr noundef nonnull align 8 dereferenceable(16) %6)
  %8 = xor i1 %7, true
  ret i1 %8
}

; Function Attrs: mustprogress uwtable
define linkonce_odr void @_ZNK7rocksdb10autovectorIPNS_16ReadOnlyMemTableELm8EE3endEv(ptr dead_on_unwind noalias writable sret(%"class.rocksdb::autovector<rocksdb::ReadOnlyMemTable *>::iterator_impl") align 8 %0, ptr noundef nonnull align 8 dereferenceable(104) %1) #5 comdat align 2 {
  %3 = alloca ptr, align 8
  %4 = alloca ptr, align 8
  store ptr %0, ptr %3, align 8
  store ptr %1, ptr %4, align 8, !tbaa !294
  %5 = load ptr, ptr %4, align 8
  %6 = call noundef i64 @_ZNK7rocksdb10autovectorIPNS_16ReadOnlyMemTableELm8EE4sizeEv(ptr noundef nonnull align 8 dereferenceable(104) %5)
  call void @_ZN7rocksdb10autovectorIPNS_16ReadOnlyMemTableELm8EE13iterator_implIKS3_KS2_EC2EPS5_m(ptr noundef nonnull align 8 dereferenceable(16) %0, ptr noundef %5, i64 noundef %6)
  ret void
}

; Function Attrs: mustprogress uwtable
define linkonce_odr void @_ZNK7rocksdb10autovectorIPNS_16ReadOnlyMemTableELm8EE5beginEv(ptr dead_on_unwind noalias writable sret(%"class.rocksdb::autovector<rocksdb::ReadOnlyMemTable *>::iterator_impl") align 8 %0, ptr noundef nonnull align 8 dereferenceable(104) %1) #5 comdat align 2 {
  %3 = alloca ptr, align 8
  %4 = alloca ptr, align 8
  store ptr %0, ptr %3, align 8
  store ptr %1, ptr %4, align 8, !tbaa !294
  %5 = load ptr, ptr %4, align 8
  call void @_ZN7rocksdb10autovectorIPNS_16ReadOnlyMemTableELm8EE13iterator_implIKS3_KS2_EC2EPS5_m(ptr noundef nonnull align 8 dereferenceable(16) %0, ptr noundef %5, i64 noundef 0)
  ret void
}

; Function Attrs: mustprogress uwtable
define void @_ZN7rocksdb8FlushJob20ReportFlushInputSizeERKNS_10autovectorIPNS_16ReadOnlyMemTableELm8EEE(ptr noundef nonnull align 8 dereferenceable(104) %0) #5 align 2 personality ptr @__gxx_personality_v0 {
  %2 = alloca ptr, align 8
  %3 = alloca i64, align 8
  %4 = alloca ptr, align 8
  %5 = alloca %"class.rocksdb::autovector<rocksdb::ReadOnlyMemTable *>::iterator_impl", align 8
  %6 = alloca %"class.rocksdb::autovector<rocksdb::ReadOnlyMemTable *>::iterator_impl", align 8
  %7 = alloca ptr, align 8
  %8 = alloca i32, align 4
  %9 = alloca ptr, align 8
  store ptr %0, ptr %2, align 8, !tbaa !294
  call void @llvm.lifetime.start.p0(i64 8, ptr %3) #4
  store i64 0, ptr %3, align 8, !tbaa !4
  call void @llvm.lifetime.start.p0(i64 8, ptr %4) #4
  %10 = load ptr, ptr %2, align 8, !tbaa !294
  store ptr %10, ptr %4, align 8, !tbaa !294
  call void @llvm.lifetime.start.p0(i64 16, ptr %5) #4
  %11 = load ptr, ptr %4, align 8, !tbaa !294
  call void @_ZNK7rocksdb10autovectorIPNS_16ReadOnlyMemTableELm8EE5beginEv(ptr dead_on_unwind writable sret(%"class.rocksdb::autovector<rocksdb::ReadOnlyMemTable *>::iterator_impl") align 8 %5, ptr noundef nonnull align 8 dereferenceable(104) %11)
  call void @llvm.lifetime.start.p0(i64 16, ptr %6) #4
  %12 = load ptr, ptr %4, align 8, !tbaa !294
  invoke void @_ZNK7rocksdb10autovectorIPNS_16ReadOnlyMemTableELm8EE3endEv(ptr dead_on_unwind writable sret(%"class.rocksdb::autovector<rocksdb::ReadOnlyMemTable *>::iterator_impl") align 8 %6, ptr noundef nonnull align 8 dereferenceable(104) %12)
          to label %13 unwind label %18

13:                                               ; preds = %1
  br label %14

14:                                               ; preds = %40, %13
  %15 = invoke noundef zeroext i1 @_ZNK7rocksdb10autovectorIPNS_16ReadOnlyMemTableELm8EE13iterator_implIKS3_KS2_EneERKS7_(ptr noundef nonnull align 8 dereferenceable(16) %5, ptr noundef nonnull align 8 dereferenceable(16) %6)
          to label %16 unwind label %22

16:                                               ; preds = %14
  br i1 %15, label %26, label %17

17:                                               ; preds = %16
  call void @_ZN7rocksdb10autovectorIPNS_16ReadOnlyMemTableELm8EE13iterator_implIKS3_KS2_ED2Ev(ptr noundef nonnull align 8 dereferenceable(16) %6) #4
  call void @llvm.lifetime.end.p0(i64 16, ptr %6) #4
  call void @_ZN7rocksdb10autovectorIPNS_16ReadOnlyMemTableELm8EE13iterator_implIKS3_KS2_ED2Ev(ptr noundef nonnull align 8 dereferenceable(16) %5) #4
  call void @llvm.lifetime.end.p0(i64 16, ptr %5) #4
  call void @llvm.lifetime.end.p0(i64 8, ptr %4) #4
  br label %47

18:                                               ; preds = %1
  %19 = landingpad { ptr, i32 }
          cleanup
  %20 = extractvalue { ptr, i32 } %19, 0
  store ptr %20, ptr %7, align 8
  %21 = extractvalue { ptr, i32 } %19, 1
  store i32 %21, ptr %8, align 4
  br label %46

22:                                               ; preds = %38, %14
  %23 = landingpad { ptr, i32 }
          cleanup
  %24 = extractvalue { ptr, i32 } %23, 0
  store ptr %24, ptr %7, align 8
  %25 = extractvalue { ptr, i32 } %23, 1
  store i32 %25, ptr %8, align 4
  br label %45

26:                                               ; preds = %16
  call void @llvm.lifetime.start.p0(i64 8, ptr %9) #4
  %27 = invoke noundef nonnull align 8 dereferenceable(8) ptr @_ZNK7rocksdb10autovectorIPNS_16ReadOnlyMemTableELm8EE13iterator_implIKS3_KS2_EdeEv(ptr noundef nonnull align 8 dereferenceable(16) %5)
          to label %28 unwind label %41

28:                                               ; preds = %26
  %29 = load ptr, ptr %27, align 8, !tbaa !351
  store ptr %29, ptr %9, align 8, !tbaa !351
  %30 = load ptr, ptr %9, align 8, !tbaa !351
  %31 = load ptr, ptr %30, align 8, !tbaa !353
  %32 = getelementptr inbounds ptr, ptr %31, i64 3
  %33 = load ptr, ptr %32, align 8
  %34 = invoke noundef i64 %33(ptr noundef nonnull align 8 dereferenceable(560) %30)
          to label %35 unwind label %41

35:                                               ; preds = %28
  %36 = load i64, ptr %3, align 8, !tbaa !4
  %37 = add i64 %36, %34
  store i64 %37, ptr %3, align 8, !tbaa !4
  call void @llvm.lifetime.end.p0(i64 8, ptr %9) #4
  br label %38

38:                                               ; preds = %35
  %39 = invoke noundef nonnull align 8 dereferenceable(16) ptr @_ZN7rocksdb10autovectorIPNS_16ReadOnlyMemTableELm8EE13iterator_implIKS3_KS2_EppEv(ptr noundef nonnull align 8 dereferenceable(16) %5)
          to label %40 unwind label %22

40:                                               ; preds = %38
  br label %14

41:                                               ; preds = %28, %26
  %42 = landingpad { ptr, i32 }
          cleanup
  %43 = extractvalue { ptr, i32 } %42, 0
  store ptr %43, ptr %7, align 8
  %44 = extractvalue { ptr, i32 } %42, 1
  store i32 %44, ptr %8, align 4
  call void @llvm.lifetime.end.p0(i64 8, ptr %9) #4
  br label %45

45:                                               ; preds = %41, %22
  call void @_ZN7rocksdb10autovectorIPNS_16ReadOnlyMemTableELm8EE13iterator_implIKS3_KS2_ED2Ev(ptr noundef nonnull align 8 dereferenceable(16) %6) #4
  br label %46

46:                                               ; preds = %45, %18
  call void @llvm.lifetime.end.p0(i64 16, ptr %6) #4
  call void @_ZN7rocksdb10autovectorIPNS_16ReadOnlyMemTableELm8EE13iterator_implIKS3_KS2_ED2Ev(ptr noundef nonnull align 8 dereferenceable(16) %5) #4
  call void @llvm.lifetime.end.p0(i64 16, ptr %5) #4
  call void @llvm.lifetime.end.p0(i64 8, ptr %4) #4
  call void @llvm.lifetime.end.p0(i64 8, ptr %3) #4
  br label %49

47:                                               ; preds = %17
  %48 = load i64, ptr %3, align 8, !tbaa !4
  call void @_ZN7rocksdb16ThreadStatusUtil31IncreaseThreadOperationPropertyEim(i32 noundef 1, i64 noundef %48)
  call void @llvm.lifetime.end.p0(i64 8, ptr %3) #4
  ret void

49:                                               ; preds = %46
  %50 = load ptr, ptr %7, align 8
  %51 = load i32, ptr %8, align 4
  %52 = insertvalue { ptr, i32 } poison, ptr %50, 0
  %53 = insertvalue { ptr, i32 } %52, i32 %51, 1
  resume { ptr, i32 } %53
}