; Function Attrs: mustprogress uwtable
define void @_ZN7rocksdb8FlushJob20ReportFlushInputSizeERKNS_10autovectorIPNS_16ReadOnlyMemTableELm8EEE(ptr noundef nonnull readonly align 8 captures(none) dereferenceable(104) %0) local_unnamed_addr #10 align 2 personality ptr @__gxx_personality_v0 {
  %2 = load i64, ptr %0, align 8, !tbaa !162, !noalias !274
  %3 = getelementptr inbounds nuw i8, ptr %0, i64 80
  %4 = getelementptr inbounds nuw i8, ptr %0, i64 88
  %5 = load ptr, ptr %4, align 8, !tbaa !268, !noalias !274
  %6 = load ptr, ptr %3, align 8, !tbaa !267, !noalias !274
  %7 = ptrtoint ptr %5 to i64
  %8 = ptrtoint ptr %6 to i64
  %9 = sub i64 %7, %8
  %10 = ashr exact i64 %9, 3
  %11 = add i64 %10, %2
  %.not15 = icmp eq i64 %11, 0
  br i1 %.not15, label %._crit_edge, label %.lr.ph

.lr.ph:                                           ; preds = %1
  %12 = getelementptr inbounds nuw i8, ptr %0, i64 72
  br label %13

._crit_edge:                                      ; preds = %13, %1
  %.0.lcssa = phi i64 [ 0, %1 ], [ %25, %13 ]
  tail call void @_ZN7rocksdb16ThreadStatusUtil31IncreaseThreadOperationPropertyEim(i32 noundef 1, i64 noundef %.0.lcssa)
  ret void

13:                                               ; preds = %.lr.ph, %13
  %.017 = phi i64 [ 0, %.lr.ph ], [ %25, %13 ]
  %.sroa.5.016 = phi i64 [ 0, %.lr.ph ], [ %26, %13 ]
  %14 = icmp ult i64 %.sroa.5.016, 8
  %15 = load ptr, ptr %12, align 8
  %16 = getelementptr inbounds nuw ptr, ptr %15, i64 %.sroa.5.016
  %17 = load ptr, ptr %3, align 8
  %18 = getelementptr ptr, ptr %17, i64 %.sroa.5.016
  %19 = getelementptr i8, ptr %18, i64 -64
  %.0.i.i = select i1 %14, ptr %16, ptr %19
  %20 = load ptr, ptr %.0.i.i, align 8, !tbaa !277
  %21 = load ptr, ptr %20, align 8, !tbaa !264
  %22 = getelementptr inbounds nuw i8, ptr %21, i64 24
  %23 = load ptr, ptr %22, align 8
  %24 = tail call noundef i64 %23(ptr noundef nonnull align 8 dereferenceable(560) %20)
  %25 = add i64 %24, %.017
  %26 = add nuw i64 %.sroa.5.016, 1
  %.not = icmp eq i64 %26, %11
  br i1 %.not, label %._crit_edge, label %13
}